; Function Attrs: nounwind uwtable
define dso_local ptr @pgstat_prep_pending_entry(i32 noundef %0, i32 noundef %1, i64 noundef %2, ptr noundef %3) local_unnamed_addr #0 {
  %5 = load ptr, ptr @pgStatPendingContext, align 8
  %.not = icmp eq ptr %5, null
  br i1 %.not, label %6, label %9, !prof !20

6:                                                ; preds = %4
  %7 = load ptr, ptr @TopMemoryContext, align 8
  %8 = tail call ptr @AllocSetContextCreateInternal(ptr noundef %7, ptr noundef nonnull @.str.5, i64 noundef 0, i64 noundef 1024, i64 noundef 8192) #17
  store ptr %8, ptr @pgStatPendingContext, align 8
  br label %9

9:                                                ; preds = %6, %4
  %10 = tail call ptr @pgstat_get_entry_ref(i32 noundef %0, i32 noundef %1, i64 noundef %2, i1 noundef zeroext true, ptr noundef %3) #17
  %11 = getelementptr inbounds nuw i8, ptr %10, i64 24
  %12 = load ptr, ptr %11, align 8
  %13 = icmp eq ptr %12, null
  br i1 %13, label %14, label %38

14:                                               ; preds = %9
  %15 = add i32 %0, -1
  %16 = icmp ult i32 %15, 12
  br i1 %16, label %17, label %20

17:                                               ; preds = %14
  %18 = zext nneg i32 %0 to i64
  %19 = getelementptr inbounds nuw [13 x %struct.PgStat_KindInfo], ptr @pgstat_kind_builtin_infos, i64 0, i64 %18
  br label %pgstat_get_kind_info.exit

20:                                               ; preds = %14
  %21 = load ptr, ptr @pgstat_kind_custom_infos, align 8, !nonnull !7, !noundef !7
  %22 = sext i32 %0 to i64
  %23 = getelementptr ptr, ptr %21, i64 %22
  %24 = getelementptr i8, ptr %23, i64 -1024
  %25 = load ptr, ptr %24, align 8
  br label %pgstat_get_kind_info.exit

pgstat_get_kind_info.exit:                        ; preds = %17, %20
  %.0.i = phi ptr [ %19, %17 ], [ %25, %20 ]
  %26 = getelementptr inbounds nuw i8, ptr %.0.i, i64 24
  %27 = load i32, ptr %26, align 8
  %28 = zext i32 %27 to i64
  %29 = load ptr, ptr @pgStatPendingContext, align 8
  %30 = tail call ptr @MemoryContextAllocZero(ptr noundef %29, i64 noundef %28) #17
  store ptr %30, ptr %11, align 8
  %31 = getelementptr inbounds nuw i8, ptr %10, i64 32
  %32 = load ptr, ptr getelementptr inbounds nuw (i8, ptr @pgStatPending, i64 8), align 8
  %33 = icmp eq ptr %32, null
  br i1 %33, label %34, label %._crit_edge.i

._crit_edge.i:                                    ; preds = %pgstat_get_kind_info.exit
  %.pre.i = load ptr, ptr @pgStatPending, align 8
  br label %dlist_push_tail.exit

34:                                               ; preds = %pgstat_get_kind_info.exit
  store ptr @pgStatPending, ptr getelementptr inbounds nuw (i8, ptr @pgStatPending, i64 8), align 8
  br label %dlist_push_tail.exit

dlist_push_tail.exit:                             ; preds = %._crit_edge.i, %34
  %35 = phi ptr [ %.pre.i, %._crit_edge.i ], [ @pgStatPending, %34 ]
  %36 = getelementptr inbounds nuw i8, ptr %10, i64 40
  store ptr @pgStatPending, ptr %36, align 8
  store ptr %35, ptr %31, align 8
  %37 = getelementptr inbounds nuw i8, ptr %35, i64 8
  store ptr %31, ptr %37, align 8
  store ptr %31, ptr @pgStatPending, align 8
  br label %38

38:                                               ; preds = %dlist_push_tail.exit, %9
  ret ptr %10
}